; Function Attrs: mustprogress nofree norecurse nosync nounwind willreturn memory(read, inaccessiblemem: none) uwtable
define hidden noundef i32 @_ZN7datalog24count_variable_argumentsEP3app(ptr nocapture noundef readonly %pred) local_unnamed_addr #6 {
entry:
  %m_num_args.i = getelementptr inbounds i8, ptr %pred, i64 24
  %0 = load i32, ptr %m_num_args.i, align 8
  %cmp5.not = icmp eq i32 %0, 0
  br i1 %cmp5.not, label %for.end, label %for.body.lr.ph

for.body.lr.ph:                                   ; preds = %entry
  %m_args.i = getelementptr inbounds i8, ptr %pred, i64 32
  %wide.trip.count = zext i32 %0 to i64
  br label %for.body

for.body:                                         ; preds = %for.body.lr.ph, %for.body
  %indvars.iv = phi i64 [ 0, %for.body.lr.ph ], [ %indvars.iv.next, %for.body ]
  %res.07 = phi i32 [ 0, %for.body.lr.ph ], [ %spec.select, %for.body ]
  %arrayidx.i = getelementptr inbounds [0 x ptr], ptr %m_args.i, i64 0, i64 %indvars.iv
  %1 = load ptr, ptr %arrayidx.i, align 8
  %m_kind.i.i = getelementptr inbounds i8, ptr %1, i64 4
  %bf.load.i.i = load i32, ptr %m_kind.i.i, align 4
  %bf.clear.i.i = and i32 %bf.load.i.i, 65535
  %cmp.i = icmp eq i32 %bf.clear.i.i, 1
  %inc = zext i1 %cmp.i to i32
  %spec.select = add i32 %res.07, %inc
  %indvars.iv.next = add nuw nsw i64 %indvars.iv, 1
  %exitcond.not = icmp eq i64 %indvars.iv.next, %wide.trip.count
  br i1 %exitcond.not, label %for.end, label %for.body, !llvm.loop !4

for.end:                                          ; preds = %for.body, %entry
  %res.0.lcssa = phi i32 [ 0, %entry ], [ %spec.select, %for.body ]
  ret i32 %res.0.lcssa
}